
C:\Users\Chris\Desktop\Development\Embedded\autostart\obj\Serial.o:     file format elf32-littlearm
C:\Users\Chris\Desktop\Development\Embedded\autostart\obj\Serial.o

Disassembly of section .text.check_reprogram_state:

00000000 <check_reprogram_state>:
check_reprogram_state():
   0:	b510      	push	{r4, lr}
   2:	4c05      	ldr	r4, [pc, #20]	(18 <check_reprogram_state+0x18>)
   4:	7823      	ldrb	r3, [r4, #0]
   6:	2b01      	cmp	r3, #1
   8:	d105      	bne.n	16 <check_reprogram_state+0x16>
   a:	f7ff fffe 	bl	0 <write_novram>
   e:	f7ff fffe 	bl	0 <software_reset>
  12:	2300      	movs	r3, #0
  14:	7023      	strb	r3, [r4, #0]
  16:	bd10      	pop	{r4, pc}
  18:	00000000 	.word	0x00000000
Disassembly of section .text.fill_autostart_state:

00000000 <fill_autostart_state>:
fill_autostart_state():
   0:	4b0e      	ldr	r3, [pc, #56]	(3c <fill_autostart_state+0x3c>)
   2:	b510      	push	{r4, lr}
   4:	781b      	ldrb	r3, [r3, #0]
   6:	2b07      	cmp	r3, #7
   8:	d816      	bhi.n	38 <fill_autostart_state+0x38>
   a:	e8df f003 	tbb	[pc, r3]
   e:	0604      	.short	0x0604
  10:	0e0c0a08 	.word	0x0e0c0a08
  14:	1210      	.short	0x1210
  16:	480a      	ldr	r0, [pc, #40]	(40 <fill_autostart_state+0x40>)
  18:	e00c      	b.n	34 <fill_autostart_state+0x34>
  1a:	480a      	ldr	r0, [pc, #40]	(44 <fill_autostart_state+0x44>)
  1c:	e00a      	b.n	34 <fill_autostart_state+0x34>
  1e:	480a      	ldr	r0, [pc, #40]	(48 <fill_autostart_state+0x48>)
  20:	e008      	b.n	34 <fill_autostart_state+0x34>
  22:	480a      	ldr	r0, [pc, #40]	(4c <fill_autostart_state+0x4c>)
  24:	e006      	b.n	34 <fill_autostart_state+0x34>
  26:	480a      	ldr	r0, [pc, #40]	(50 <fill_autostart_state+0x50>)
  28:	e004      	b.n	34 <fill_autostart_state+0x34>
  2a:	480a      	ldr	r0, [pc, #40]	(54 <fill_autostart_state+0x54>)
  2c:	e002      	b.n	34 <fill_autostart_state+0x34>
  2e:	480a      	ldr	r0, [pc, #40]	(58 <fill_autostart_state+0x58>)
  30:	e000      	b.n	34 <fill_autostart_state+0x34>
  32:	480a      	ldr	r0, [pc, #40]	(5c <fill_autostart_state+0x5c>)
  34:	f7ff fffe 	bl	0 <fill_a_string>
  38:	bd10      	pop	{r4, pc}
  3a:	46c0      	nop			(mov r8, r8)
	...
  44:	00000005 	.word	0x00000005
  48:	0000000d 	.word	0x0000000d
  4c:	00000016 	.word	0x00000016
  50:	00000028 	.word	0x00000028
  54:	0000002f 	.word	0x0000002f
  58:	00000039 	.word	0x00000039
  5c:	00000041 	.word	0x00000041
Disassembly of section .text.fill_machine_state:

00000000 <fill_machine_state>:
fill_machine_state():
   0:	b510      	push	{r4, lr}
   2:	4b1c      	ldr	r3, [pc, #112]	(74 <fill_machine_state+0x74>)
   4:	781b      	ldrb	r3, [r3, #0]
   6:	2b21      	cmp	r3, #33
   8:	d833      	bhi.n	72 <fill_machine_state+0x72>
   a:	e8df f003 	tbb	[pc, r3]
   e:	1311      	.short	0x1311
  10:	1b191715 	.word	0x1b191715
  14:	1f1d      	.short	0x1f1d
  16:	2321      	.short	0x2321
  18:	29322725 	.word	0x29322725
  1c:	2d2b      	.short	0x2d2b
  1e:	3232      	.short	0x3232
  20:	32323232 	.word	0x32323232
  24:	32323232 	.word	0x32323232
  28:	32323232 	.word	0x32323232
  2c:	2f323232 	.word	0x2f323232
  30:	4811      	ldr	r0, [pc, #68]	(78 <fill_machine_state+0x78>)
  32:	e01c      	b.n	6e <fill_machine_state+0x6e>
  34:	4811      	ldr	r0, [pc, #68]	(7c <fill_machine_state+0x7c>)
  36:	e01a      	b.n	6e <fill_machine_state+0x6e>
  38:	4811      	ldr	r0, [pc, #68]	(80 <fill_machine_state+0x80>)
  3a:	e018      	b.n	6e <fill_machine_state+0x6e>
  3c:	4811      	ldr	r0, [pc, #68]	(84 <fill_machine_state+0x84>)
  3e:	e016      	b.n	6e <fill_machine_state+0x6e>
  40:	4811      	ldr	r0, [pc, #68]	(88 <fill_machine_state+0x88>)
  42:	e014      	b.n	6e <fill_machine_state+0x6e>
  44:	4811      	ldr	r0, [pc, #68]	(8c <fill_machine_state+0x8c>)
  46:	e012      	b.n	6e <fill_machine_state+0x6e>
  48:	4811      	ldr	r0, [pc, #68]	(90 <fill_machine_state+0x90>)
  4a:	e010      	b.n	6e <fill_machine_state+0x6e>
  4c:	4811      	ldr	r0, [pc, #68]	(94 <fill_machine_state+0x94>)
  4e:	e00e      	b.n	6e <fill_machine_state+0x6e>
  50:	4811      	ldr	r0, [pc, #68]	(98 <fill_machine_state+0x98>)
  52:	e00c      	b.n	6e <fill_machine_state+0x6e>
  54:	4811      	ldr	r0, [pc, #68]	(9c <fill_machine_state+0x9c>)
  56:	e00a      	b.n	6e <fill_machine_state+0x6e>
  58:	4811      	ldr	r0, [pc, #68]	(a0 <fill_machine_state+0xa0>)
  5a:	e008      	b.n	6e <fill_machine_state+0x6e>
  5c:	4811      	ldr	r0, [pc, #68]	(a4 <fill_machine_state+0xa4>)
  5e:	e006      	b.n	6e <fill_machine_state+0x6e>
  60:	4811      	ldr	r0, [pc, #68]	(a8 <fill_machine_state+0xa8>)
  62:	e004      	b.n	6e <fill_machine_state+0x6e>
  64:	4811      	ldr	r0, [pc, #68]	(ac <fill_machine_state+0xac>)
  66:	e002      	b.n	6e <fill_machine_state+0x6e>
  68:	4811      	ldr	r0, [pc, #68]	(b0 <fill_machine_state+0xb0>)
  6a:	e000      	b.n	6e <fill_machine_state+0x6e>
  6c:	4811      	ldr	r0, [pc, #68]	(b4 <fill_machine_state+0xb4>)
  6e:	f7ff fffe 	bl	0 <fill_a_string>
  72:	bd10      	pop	{r4, pc}
  74:	00000000 	.word	0x00000000
  78:	00000047 	.word	0x00000047
  7c:	0000004d 	.word	0x0000004d
  80:	00000056 	.word	0x00000056
  84:	0000005f 	.word	0x0000005f
  88:	00000069 	.word	0x00000069
  8c:	00000073 	.word	0x00000073
  90:	0000007c 	.word	0x0000007c
  94:	00000085 	.word	0x00000085
  98:	0000008f 	.word	0x0000008f
  9c:	00000099 	.word	0x00000099
  a0:	000000a2 	.word	0x000000a2
  a4:	000000ad 	.word	0x000000ad
  a8:	000000b6 	.word	0x000000b6
  ac:	000000c0 	.word	0x000000c0
  b0:	000000c9 	.word	0x000000c9
  b4:	000000d2 	.word	0x000000d2
Disassembly of section .text.fill_a_psw_pol:

00000000 <fill_a_psw_pol>:
fill_a_psw_pol():
   0:	b510      	push	{r4, lr}
   2:	b110      	cbz	r0, a <fill_a_psw_pol+0xa>
   4:	2803      	cmp	r0, #3
   6:	d104      	bne.n	12 <fill_a_psw_pol+0x12>
   8:	e001      	b.n	e <fill_a_psw_pol+0xe>
   a:	4804      	ldr	r0, [pc, #16]	(1c <fill_a_psw_pol+0x1c>)
   c:	e002      	b.n	14 <fill_a_psw_pol+0x14>
   e:	4804      	ldr	r0, [pc, #16]	(20 <fill_a_psw_pol+0x20>)
  10:	e000      	b.n	14 <fill_a_psw_pol+0x14>
  12:	4804      	ldr	r0, [pc, #16]	(24 <fill_a_psw_pol+0x24>)
  14:	f7ff fffe 	bl	0 <fill_a_string>
  18:	bd10      	pop	{r4, pc}
  1a:	46c0      	nop			(mov r8, r8)
  1c:	00dc      	.short	0x00dc
  1e:	0000      	.short	0x0000
  20:	000000e1 	.word	0x000000e1
  24:	000000e8 	.word	0x000000e8
Disassembly of section .text.set_column:

00000000 <set_column>:
set_column():
   0:	b510      	push	{r4, lr}
   2:	4604      	mov	r4, r0
   4:	4804      	ldr	r0, [pc, #16]	(18 <set_column+0x18>)
   6:	f7ff fffe 	bl	0 <fill_a_string>
   a:	4620      	mov	r0, r4
   c:	f7ff fffe 	bl	0 <fill_a_string>
  10:	4802      	ldr	r0, [pc, #8]	(c <fill_a_string+0xc>)
  12:	f7ff fffe 	bl	0 <fill_a_string>
  16:	bd10      	pop	{r4, pc}
  18:	000000f0 	.word	0x000000f0
  1c:	00f3      	.short	0x00f3
	...
Disassembly of section .text.fill_a_switch:

00000000 <fill_a_switch>:
fill_a_switch():
   0:	b510      	push	{r4, lr}
   2:	2805      	cmp	r0, #5
   4:	d80c      	bhi.n	20 <fill_a_switch+0x20>
   6:	e8df f000 	tbb	[pc, r0]
   a:	0503      	.short	0x0503
   c:	0705      	.short	0x0705
   e:	0909      	.short	0x0909
  10:	4805      	ldr	r0, [pc, #20]	(28 <fill_a_switch+0x28>)
  12:	e006      	b.n	22 <fill_a_switch+0x22>
  14:	4805      	ldr	r0, [pc, #20]	(2c <fill_a_switch+0x2c>)
  16:	e004      	b.n	22 <fill_a_switch+0x22>
  18:	4805      	ldr	r0, [pc, #20]	(30 <fill_a_switch+0x30>)
  1a:	e002      	b.n	22 <fill_a_switch+0x22>
  1c:	4805      	ldr	r0, [pc, #20]	(34 <fill_a_switch+0x34>)
  1e:	e000      	b.n	22 <fill_a_switch+0x22>
  20:	4805      	ldr	r0, [pc, #20]	(38 <fill_a_switch+0x38>)
  22:	f7ff fffe 	bl	0 <fill_a_string>
  26:	bd10      	pop	{r4, pc}
  28:	000000f5 	.word	0x000000f5
  2c:	000000fd 	.word	0x000000fd
  30:	00000105 	.word	0x00000105
  34:	0000010d 	.word	0x0000010d
  38:	000000e8 	.word	0x000000e8
Disassembly of section .text.fill_pressure_input:

00000000 <fill_pressure_input>:
fill_pressure_input():
   0:	b510      	push	{r4, lr}
   2:	4807      	ldr	r0, [pc, #28]	(20 <fill_pressure_input+0x20>)
   4:	f7ff fffe 	bl	0 <fill_a_string>
   8:	4b06      	ldr	r3, [pc, #24]	(24 <fill_pressure_input+0x24>)
   a:	8c98      	ldrh	r0, [r3, #36]
   c:	f7ff fffe 	bl	0 <fill_a_decimal>
  10:	4805      	ldr	r0, [pc, #20]	(18 <fill_a_string+0x18>)
  12:	f7ff fffe 	bl	0 <fill_a_string>
  16:	4805      	ldr	r0, [pc, #20]	(18 <fill_a_string+0x18>)
  18:	f7ff fffe 	bl	0 <fill_a_string>
  1c:	bd10      	pop	{r4, pc}
  1e:	46c0      	nop			(mov r8, r8)
  20:	00000115 	.word	0x00000115
  24:	00000000 	.word	0x00000000
  28:	0000014a 	.word	0x0000014a
  2c:	000001a7 	.word	0x000001a7
Disassembly of section .text.fill_a_minutes:

00000000 <fill_a_minutes>:
fill_a_minutes():
   0:	233c      	movs	r3, #60
   2:	fbb0 f0f3 	udiv	r0, r0, r3
   6:	b510      	push	{r4, lr}
   8:	2101      	movs	r1, #1
   a:	f7ff fffe 	bl	0 <fill_a_number>
   e:	4802      	ldr	r0, [pc, #8]	(c <fill_a_string+0xc>)
  10:	f7ff fffe 	bl	0 <fill_a_string>
  14:	bd10      	pop	{r4, pc}
  16:	46c0      	nop			(mov r8, r8)
  18:	000001d9 	.word	0x000001d9
Disassembly of section .text.fill_a_this_mins:

00000000 <fill_a_this_mins>:
fill_a_this_mins():
   0:	b510      	push	{r4, lr}
   2:	4604      	mov	r4, r0
   4:	4804      	ldr	r0, [pc, #16]	(18 <fill_a_this_mins+0x18>)
   6:	f7ff fffe 	bl	0 <fill_a_string>
   a:	200a      	movs	r0, #10
   c:	fbb4 f0f0 	udiv	r0, r4, r0
  10:	f7ff fffe 	bl	0 <fill_a_this_mins>
  14:	bd10      	pop	{r4, pc}
  16:	46c0      	nop			(mov r8, r8)
  18:	000001df 	.word	0x000001df
Disassembly of section .text.fill_a_hours:

00000000 <fill_a_hours>:
fill_a_hours():
   0:	f44f 6361 	mov.w	r3, #3600	; 0xe10
   4:	fbb0 f0f3 	udiv	r0, r0, r3
   8:	b510      	push	{r4, lr}
   a:	2101      	movs	r1, #1
   c:	f7ff fffe 	bl	0 <fill_a_number>
  10:	4801      	ldr	r0, [pc, #4]	(8 <fill_a_string+0x8>)
  12:	f7ff fffe 	bl	0 <fill_a_string>
  16:	bd10      	pop	{r4, pc}
  18:	000001f5 	.word	0x000001f5
Disassembly of section .text.send_health_screen:

00000000 <send_health_screen>:
send_health_screen():
   0:	b510      	push	{r4, lr}
   2:	4c0d      	ldr	r4, [pc, #52]	(38 <send_health_screen+0x38>)
   4:	480d      	ldr	r0, [pc, #52]	(3c <send_health_screen+0x3c>)
   6:	f7ff fffe 	bl	0 <fill_a_string>
   a:	8a20      	ldrh	r0, [r4, #16]
   c:	f7ff fffe 	bl	0 <fill_a_decimal>
  10:	480b      	ldr	r0, [pc, #44]	(30 <fill_a_string+0x30>)
  12:	f7ff fffe 	bl	0 <fill_a_string>
  16:	6820      	ldr	r0, [r4, #0]
  18:	f7ff fffe 	bl	0 <send_health_screen>
  1c:	4b09      	ldr	r3, [pc, #36]	(44 <send_health_screen+0x44>)
  1e:	8818      	ldrh	r0, [r3, #0]
  20:	f7ff fffe 	bl	0 <send_health_screen>
  24:	4808      	ldr	r0, [pc, #32]	(24 <fill_a_string+0x24>)
  26:	f7ff fffe 	bl	0 <fill_a_string>
  2a:	6860      	ldr	r0, [r4, #4]
  2c:	f7ff fffe 	bl	0 <send_health_screen>
  30:	f7ff fffe 	bl	0 <send_sio_buffer>
  34:	bd10      	pop	{r4, pc}
  36:	46c0      	nop			(mov r8, r8)
  38:	00000000 	.word	0x00000000
  3c:	000001fa 	.word	0x000001fa
  40:	0000020f 	.word	0x0000020f
  44:	00000000 	.word	0x00000000
  48:	00000222 	.word	0x00000222
Disassembly of section .text.fill_terminal_info:

00000000 <fill_terminal_info>:
fill_terminal_info():
   0:	b510      	push	{r4, lr}
   2:	4850      	ldr	r0, [pc, #320]	(144 <fill_terminal_info+0x144>)
   4:	f7ff fffe 	bl	0 <fill_a_string>
   8:	484f      	ldr	r0, [pc, #316]	(140 <fill_terminal_info+0x140>)
   a:	f7ff fffe 	bl	0 <fill_terminal_info>
   e:	484f      	ldr	r0, [pc, #316]	(140 <fill_a_string+0x140>)
  10:	f7ff fffe 	bl	0 <fill_a_string>
  14:	484e      	ldr	r0, [pc, #312]	(13c <fill_terminal_info+0x13c>)
  16:	f7ff fffe 	bl	0 <fill_terminal_info>
  1a:	484e      	ldr	r0, [pc, #312]	(13c <fill_a_string+0x13c>)
  1c:	f7ff fffe 	bl	0 <fill_a_string>
  20:	484d      	ldr	r0, [pc, #308]	(138 <fill_a_string+0x138>)
  22:	f7ff fffe 	bl	0 <fill_a_string>
  26:	484d      	ldr	r0, [pc, #308]	(138 <fill_a_decimal+0x138>)
  28:	f7ff fffe 	bl	0 <fill_a_decimal>
  2c:	484c      	ldr	r0, [pc, #304]	(134 <fill_a_string+0x134>)
  2e:	f7ff fffe 	bl	0 <fill_a_string>
  32:	2102      	movs	r1, #2
  34:	2001      	movs	r0, #1
  36:	f7ff fffe 	bl	0 <fill_a_number>
  3a:	484a      	ldr	r0, [pc, #296]	(12c <fill_a_string+0x12c>)
  3c:	f7ff fffe 	bl	0 <fill_a_string>
  40:	4849      	ldr	r0, [pc, #292]	(128 <fill_a_string+0x128>)
  42:	f7ff fffe 	bl	0 <fill_a_string>
  46:	4849      	ldr	r0, [pc, #292]	(128 <fill_a_string+0x128>)
  48:	f7ff fffe 	bl	0 <fill_a_string>
  4c:	4848      	ldr	r0, [pc, #288]	(124 <fill_a_string+0x124>)
  4e:	f7ff fffe 	bl	0 <fill_a_string>
  52:	4848      	ldr	r0, [pc, #288]	(124 <fill_a_string+0x124>)
  54:	f7ff fffe 	bl	0 <fill_a_string>
  58:	4847      	ldr	r0, [pc, #284]	(120 <fill_a_string+0x120>)
  5a:	f7ff fffe 	bl	0 <fill_a_string>
  5e:	2001      	movs	r0, #1
  60:	f7ff fffe 	bl	0 <get_recent_identity>
  64:	f7ff fffe 	bl	0 <fill_a_string>
  68:	4844      	ldr	r0, [pc, #272]	(114 <fill_terminal_info+0x114>)
  6a:	f7ff fffe 	bl	0 <fill_terminal_info>
  6e:	4844      	ldr	r0, [pc, #272]	(114 <fill_a_string+0x114>)
  70:	f7ff fffe 	bl	0 <fill_a_string>
  74:	2000      	movs	r0, #0
  76:	f7ff fffe 	bl	0 <get_recent_identity>
  7a:	f7ff fffe 	bl	0 <fill_a_string>
  7e:	4841      	ldr	r0, [pc, #260]	(108 <fill_a_string+0x108>)
  80:	f7ff fffe 	bl	0 <fill_a_string>
  84:	4b40      	ldr	r3, [pc, #256]	(188 <fill_terminal_info+0x188>)
  86:	2101      	movs	r1, #1
  88:	8818      	ldrh	r0, [r3, #0]
  8a:	f7ff fffe 	bl	0 <fill_a_number>
  8e:	4c3f      	ldr	r4, [pc, #252]	(18c <fill_terminal_info+0x18c>)
  90:	4833      	ldr	r0, [pc, #204]	(160 <fill_terminal_info+0x160>)
  92:	f7ff fffe 	bl	0 <fill_a_string>
  96:	483e      	ldr	r0, [pc, #248]	(fc <fill_a_string+0xfc>)
  98:	f7ff fffe 	bl	0 <fill_a_string>
  9c:	7860      	ldrb	r0, [r4, #1]
  9e:	f7ff fffe 	bl	0 <fill_terminal_info>
  a2:	4836      	ldr	r0, [pc, #216]	(dc <fill_terminal_info+0xdc>)
  a4:	f7ff fffe 	bl	0 <fill_terminal_info>
  a8:	483a      	ldr	r0, [pc, #232]	(ec <fill_a_string+0xec>)
  aa:	f7ff fffe 	bl	0 <fill_a_string>
  ae:	7a20      	ldrb	r0, [r4, #8]
  b0:	f7ff fffe 	bl	0 <fill_terminal_info>
  b4:	4838      	ldr	r0, [pc, #224]	(e4 <fill_a_string+0xe4>)
  b6:	f7ff fffe 	bl	0 <fill_a_string>
  ba:	4b38      	ldr	r3, [pc, #224]	(19c <fill_terminal_info+0x19c>)
  bc:	2101      	movs	r1, #1
  be:	8818      	ldrh	r0, [r3, #0]
  c0:	f7ff fffe 	bl	0 <fill_a_number>
  c4:	4836      	ldr	r0, [pc, #216]	(dc <fill_a_string+0xdc>)
  c6:	f7ff fffe 	bl	0 <fill_a_string>
  ca:	4836      	ldr	r0, [pc, #216]	(dc <fill_a_string+0xdc>)
  cc:	f7ff fffe 	bl	0 <fill_a_string>
  d0:	4b35      	ldr	r3, [pc, #212]	(1a8 <fill_terminal_info+0x1a8>)
  d2:	f893 302c 	ldrb.w	r3, [r3, #44]
  d6:	b11b      	cbz	r3, e0 <fill_terminal_info+0xe0>
  d8:	4834      	ldr	r0, [pc, #208]	(1ac <fill_terminal_info+0x1ac>)
  da:	f7ff fffe 	bl	0 <fill_a_string>
  de:	e006      	b.n	ee <fill_terminal_info+0xee>
  e0:	4833      	ldr	r0, [pc, #204]	(1b0 <fill_terminal_info+0x1b0>)
  e2:	f7ff fffe 	bl	0 <fill_a_string>
  e6:	4b33      	ldr	r3, [pc, #204]	(1b4 <fill_terminal_info+0x1b4>)
  e8:	7818      	ldrb	r0, [r3, #0]
  ea:	f7ff fffe 	bl	0 <fill_terminal_info>
  ee:	4832      	ldr	r0, [pc, #200]	(cc <fill_a_string+0xcc>)
  f0:	f7ff fffe 	bl	0 <fill_a_string>
  f4:	f7ff fffe 	bl	0 <fill_terminal_info>
  f8:	4820      	ldr	r0, [pc, #128]	(17c <fill_terminal_info+0x17c>)
  fa:	4c2b      	ldr	r4, [pc, #172]	(1a8 <fill_terminal_info+0x1a8>)
  fc:	f7ff fffe 	bl	0 <fill_terminal_info>
 100:	482e      	ldr	r0, [pc, #184]	(bc <fill_a_string+0xbc>)
 102:	f7ff fffe 	bl	0 <fill_a_string>
 106:	f7ff fffe 	bl	0 <fill_terminal_info>
 10a:	482d      	ldr	r0, [pc, #180]	(b8 <fill_a_string+0xb8>)
 10c:	f7ff fffe 	bl	0 <fill_a_string>
 110:	f894 002a 	ldrb.w	r0, [r4, #42]
 114:	f7ff fffe 	bl	0 <fill_a_decimal>
 118:	482a      	ldr	r0, [pc, #168]	(ac <fill_a_string+0xac>)
 11a:	f7ff fffe 	bl	0 <fill_a_string>
 11e:	8a60      	ldrh	r0, [r4, #18]
 120:	f7ff fffe 	bl	0 <fill_a_decimal>
 124:	4828      	ldr	r0, [pc, #160]	(a4 <fill_a_string+0xa4>)
 126:	f7ff fffe 	bl	0 <fill_a_string>
 12a:	8aa0      	ldrh	r0, [r4, #20]
 12c:	f7ff fffe 	bl	0 <fill_a_decimal>
 130:	4826      	ldr	r0, [pc, #152]	(9c <fill_a_string+0x9c>)
 132:	f7ff fffe 	bl	0 <fill_a_string>
 136:	8ae0      	ldrh	r0, [r4, #22]
 138:	f7ff fffe 	bl	0 <fill_a_decimal>
 13c:	4824      	ldr	r0, [pc, #144]	(94 <fill_a_string+0x94>)
 13e:	f7ff fffe 	bl	0 <fill_a_string>
 142:	bd10      	pop	{r4, pc}
 144:	00000230 	.word	0x00000230
 148:	00000234 	.word	0x00000234
 14c:	00000237 	.word	0x00000237
 150:	0000025b 	.word	0x0000025b
 154:	0000025e 	.word	0x0000025e
 158:	00000276 	.word	0x00000276
 15c:	02c787a5 	.word	0x02c787a5
 160:	0000028f 	.word	0x0000028f
 164:	00000292 	.word	0x00000292
 168:	00000294 	.word	0x00000294
 16c:	000002a1 	.word	0x000002a1
 170:	000002ad 	.word	0x000002ad
 174:	000002b2 	.word	0x000002b2
 178:	000002bb 	.word	0x000002bb
 17c:	000002d0 	.word	0x000002d0
 180:	000002d3 	.word	0x000002d3
 184:	000002e2 	.word	0x000002e2
	...
 190:	000002f7 	.word	0x000002f7
 194:	0000030f 	.word	0x0000030f
 198:	00000328 	.word	0x00000328
 19c:	00000000 	.word	0x00000000
 1a0:	00000349 	.word	0x00000349
 1a4:	0000034e 	.word	0x0000034e
 1a8:	00000000 	.word	0x00000000
 1ac:	00000361 	.word	0x00000361
 1b0:	0000036e 	.word	0x0000036e
 1b4:	00000000 	.word	0x00000000
 1b8:	0000037e 	.word	0x0000037e
 1bc:	00000390 	.word	0x00000390
 1c0:	000003aa 	.word	0x000003aa
 1c4:	000003c0 	.word	0x000003c0
 1c8:	000003ce 	.word	0x000003ce
 1cc:	000003e0 	.word	0x000003e0
 1d0:	000003f2 	.word	0x000003f2
Disassembly of section .text.display_analogs:

00000000 <display_analogs>:
display_analogs():
   0:	b510      	push	{r4, lr}
   2:	4c47      	ldr	r4, [pc, #284]	(120 <display_analogs+0x120>)
   4:	f7ff fffe 	bl	0 <wait_for_buffer>
   8:	4846      	ldr	r0, [pc, #280]	(11c <fill_a_string+0x11c>)
   a:	f7ff fffe 	bl	0 <fill_a_string>
   e:	f8b4 005e 	ldrh.w	r0, [r4, #94]
  12:	f7ff fffe 	bl	0 <fill_an_int>
  16:	4844      	ldr	r0, [pc, #272]	(114 <fill_a_string+0x114>)
  18:	f7ff fffe 	bl	0 <fill_a_string>
  1c:	f8b4 006a 	ldrh.w	r0, [r4, #106]
  20:	f7ff fffe 	bl	0 <fill_an_int>
  24:	4841      	ldr	r0, [pc, #260]	(108 <fill_a_string+0x108>)
  26:	f7ff fffe 	bl	0 <fill_a_string>
  2a:	f8b4 0076 	ldrh.w	r0, [r4, #118]
  2e:	f7ff fffe 	bl	0 <fill_an_int>
  32:	483f      	ldr	r0, [pc, #252]	(100 <fill_a_string+0x100>)
  34:	f7ff fffe 	bl	0 <fill_a_string>
  38:	8de0      	ldrh	r0, [r4, #46]
  3a:	f7ff fffe 	bl	0 <fill_an_int>
  3e:	483d      	ldr	r0, [pc, #244]	(f8 <fill_a_string+0xf8>)
  40:	f7ff fffe 	bl	0 <fill_a_string>
  44:	8960      	ldrh	r0, [r4, #10]
  46:	f7ff fffe 	bl	0 <fill_an_int>
  4a:	483b      	ldr	r0, [pc, #236]	(f0 <fill_a_string+0xf0>)
  4c:	f7ff fffe 	bl	0 <fill_a_string>
  50:	8ae0      	ldrh	r0, [r4, #22]
  52:	f7ff fffe 	bl	0 <fill_an_int>
  56:	4839      	ldr	r0, [pc, #228]	(e8 <fill_a_string+0xe8>)
  58:	f7ff fffe 	bl	0 <fill_a_string>
  5c:	8c60      	ldrh	r0, [r4, #34]
  5e:	f7ff fffe 	bl	0 <fill_an_int>
  62:	4837      	ldr	r0, [pc, #220]	(e0 <fill_a_string+0xe0>)
  64:	f7ff fffe 	bl	0 <fill_a_string>
  68:	f8b4 0082 	ldrh.w	r0, [r4, #130]
  6c:	f7ff fffe 	bl	0 <fill_an_int>
  70:	4834      	ldr	r0, [pc, #208]	(d4 <fill_a_string+0xd4>)
  72:	f7ff fffe 	bl	0 <fill_a_string>
  76:	8f60      	ldrh	r0, [r4, #58]
  78:	f7ff fffe 	bl	0 <fill_an_int>
  7c:	4832      	ldr	r0, [pc, #200]	(cc <fill_a_string+0xcc>)
  7e:	f7ff fffe 	bl	0 <fill_a_string>
  82:	f8b4 0046 	ldrh.w	r0, [r4, #70]
  86:	f7ff fffe 	bl	0 <fill_an_int>
  8a:	4830      	ldr	r0, [pc, #192]	(c4 <fill_a_string+0xc4>)
  8c:	f7ff fffe 	bl	0 <fill_a_string>
  90:	f8b4 0052 	ldrh.w	r0, [r4, #82]
  94:	4c2e      	ldr	r4, [pc, #184]	(bc <fill_an_int+0xbc>)
  96:	f7ff fffe 	bl	0 <fill_an_int>
  9a:	482e      	ldr	r0, [pc, #184]	(bc <fill_a_string+0xbc>)
  9c:	f7ff fffe 	bl	0 <fill_a_string>
  a0:	8820      	ldrh	r0, [r4, #0]
  a2:	f7ff fffe 	bl	0 <fill_an_int>
  a6:	482c      	ldr	r0, [pc, #176]	(b4 <fill_a_string+0xb4>)
  a8:	f7ff fffe 	bl	0 <fill_a_string>
  ac:	8860      	ldrh	r0, [r4, #2]
  ae:	f7ff fffe 	bl	0 <fill_an_int>
  b2:	482a      	ldr	r0, [pc, #168]	(ac <fill_a_string+0xac>)
  b4:	f7ff fffe 	bl	0 <fill_a_string>
  b8:	88a0      	ldrh	r0, [r4, #4]
  ba:	f7ff fffe 	bl	0 <fill_an_int>
  be:	4828      	ldr	r0, [pc, #160]	(a4 <fill_a_string+0xa4>)
  c0:	f7ff fffe 	bl	0 <fill_a_string>
  c4:	88e0      	ldrh	r0, [r4, #6]
  c6:	f7ff fffe 	bl	0 <fill_an_int>
  ca:	4826      	ldr	r0, [pc, #152]	(9c <fill_a_string+0x9c>)
  cc:	f7ff fffe 	bl	0 <fill_a_string>
  d0:	8920      	ldrh	r0, [r4, #8]
  d2:	f7ff fffe 	bl	0 <fill_an_int>
  d6:	4824      	ldr	r0, [pc, #144]	(94 <fill_a_string+0x94>)
  d8:	f7ff fffe 	bl	0 <fill_a_string>
  dc:	8960      	ldrh	r0, [r4, #10]
  de:	f7ff fffe 	bl	0 <fill_an_int>
  e2:	4822      	ldr	r0, [pc, #136]	(8c <fill_a_string+0x8c>)
  e4:	f7ff fffe 	bl	0 <fill_a_string>
  e8:	89a0      	ldrh	r0, [r4, #12]
  ea:	f7ff fffe 	bl	0 <fill_an_int>
  ee:	4820      	ldr	r0, [pc, #128]	(84 <fill_a_string+0x84>)
  f0:	f7ff fffe 	bl	0 <fill_a_string>
  f4:	89e0      	ldrh	r0, [r4, #14]
  f6:	f7ff fffe 	bl	0 <fill_an_int>
  fa:	481e      	ldr	r0, [pc, #120]	(7c <fill_a_string+0x7c>)
  fc:	f7ff fffe 	bl	0 <fill_a_string>
 100:	8a20      	ldrh	r0, [r4, #16]
 102:	f7ff fffe 	bl	0 <fill_an_int>
 106:	481c      	ldr	r0, [pc, #112]	(74 <fill_a_string+0x74>)
 108:	f7ff fffe 	bl	0 <fill_a_string>
 10c:	8a60      	ldrh	r0, [r4, #18]
 10e:	f7ff fffe 	bl	0 <fill_an_int>
 112:	481a      	ldr	r0, [pc, #104]	(6c <fill_a_string+0x6c>)
 114:	f7ff fffe 	bl	0 <fill_a_string>
 118:	f7ff fffe 	bl	0 <send_sio_buffer>
 11c:	bd10      	pop	{r4, pc}
 11e:	46c0      	nop			(mov r8, r8)
 120:	00000000 	.word	0x00000000
 124:	000003f5 	.word	0x000003f5
 128:	00000404 	.word	0x00000404
 12c:	00000417 	.word	0x00000417
 130:	0000042a 	.word	0x0000042a
 134:	00000438 	.word	0x00000438
 138:	0000044a 	.word	0x0000044a
 13c:	0000045d 	.word	0x0000045d
 140:	00000468 	.word	0x00000468
 144:	00000476 	.word	0x00000476
 148:	00000489 	.word	0x00000489
 14c:	0000049d 	.word	0x0000049d
 150:	00000000 	.word	0x00000000
 154:	000004b1 	.word	0x000004b1
 158:	000004c4 	.word	0x000004c4
 15c:	000004d6 	.word	0x000004d6
 160:	000004e8 	.word	0x000004e8
 164:	000004fa 	.word	0x000004fa
 168:	00000508 	.word	0x00000508
 16c:	00000516 	.word	0x00000516
 170:	00000525 	.word	0x00000525
 174:	00000534 	.word	0x00000534
 178:	00000543 	.word	0x00000543
 17c:	000003f2 	.word	0x000003f2
Disassembly of section .text.serial_receive:

00000000 <serial_receive>:
serial_receive():
   0:	b513      	push	{r0, r1, r4, lr}
   2:	f10d 0007 	add.w	r0, sp, #7	; 0x7
   6:	f7ff fffe 	bl	0 <get_serial_character>
   a:	2800      	cmp	r0, #0
   c:	f000 8190 	beq.w	330 <serial_receive+0x330>
  10:	f89d 2007 	ldrb.w	r2, [sp, #7]
  14:	4996      	ldr	r1, [pc, #600]	(270 <serial_receive+0x270>)
  16:	2a1b      	cmp	r2, #27
  18:	d10a      	bne.n	30 <serial_receive+0x30>
  1a:	f44f 7296 	mov.w	r2, #300	; 0x12c
  1e:	4b95      	ldr	r3, [pc, #596]	(274 <serial_receive+0x274>)
  20:	800a      	strh	r2, [r1, #0]
  22:	f04f 0200 	mov.w	r2, #0	; 0x0
  26:	801a      	strh	r2, [r3, #0]
  28:	4893      	ldr	r0, [pc, #588]	(278 <serial_receive+0x278>)
  2a:	f7ff fffe 	bl	0 <send_a_string>
  2e:	e17f      	b.n	330 <serial_receive+0x330>
  30:	880b      	ldrh	r3, [r1, #0]
  32:	2b00      	cmp	r3, #0
  34:	f000 817c 	beq.w	330 <serial_receive+0x330>
  38:	2400      	movs	r4, #0
  3a:	2a66      	cmp	r2, #102
  3c:	800c      	strh	r4, [r1, #0]
  3e:	d04f      	beq.n	e0 <serial_receive+0xe0>
  40:	d820      	bhi.n	84 <serial_receive+0x84>
  42:	2a4d      	cmp	r2, #77
  44:	f000 80dc 	beq.w	200 <serial_receive+0x200>
  48:	d80f      	bhi.n	6a <serial_receive+0x6a>
  4a:	2a48      	cmp	r2, #72
  4c:	d053      	beq.n	f6 <serial_receive+0xf6>
  4e:	d806      	bhi.n	5e <serial_receive+0x5e>
  50:	2a21      	cmp	r2, #33
  52:	f000 80b3 	beq.w	1bc <serial_receive+0x1bc>
  56:	2a3f      	cmp	r2, #63
  58:	f040 816a 	bne.w	330 <serial_receive+0x330>
  5c:	e164      	b.n	328 <serial_receive+0x328>
  5e:	2a49      	cmp	r2, #73
  60:	d046      	beq.n	f0 <serial_receive+0xf0>
  62:	2a4c      	cmp	r2, #76
  64:	f040 8164 	bne.w	330 <serial_receive+0x330>
  68:	e0d7      	b.n	21a <serial_receive+0x21a>
  6a:	2a61      	cmp	r2, #97
  6c:	d031      	beq.n	d2 <serial_receive+0xd2>
  6e:	d803      	bhi.n	78 <serial_receive+0x78>
  70:	2a52      	cmp	r2, #82
  72:	f040 815d 	bne.w	330 <serial_receive+0x330>
  76:	e023      	b.n	c0 <serial_receive+0xc0>
  78:	2a63      	cmp	r2, #99
  7a:	d026      	beq.n	ca <serial_receive+0xca>
  7c:	2a65      	cmp	r2, #101
  7e:	f040 8157 	bne.w	330 <serial_receive+0x330>
  82:	e02a      	b.n	da <serial_receive+0xda>
  84:	2a6d      	cmp	r2, #109
  86:	d03b      	beq.n	100 <serial_receive+0x100>
  88:	d809      	bhi.n	9e <serial_receive+0x9e>
  8a:	2a68      	cmp	r2, #104
  8c:	d02d      	beq.n	ea <serial_receive+0xea>
  8e:	d37a      	bcc.n	186 <serial_receive+0x186>
  90:	2a6a      	cmp	r2, #106
  92:	f000 8097 	beq.w	1c4 <serial_receive+0x1c4>
  96:	2a6b      	cmp	r2, #107
  98:	f040 814a 	bne.w	330 <serial_receive+0x330>
  9c:	e09e      	b.n	1dc <serial_receive+0x1dc>
  9e:	2a72      	cmp	r2, #114
  a0:	d00a      	beq.n	b8 <serial_receive+0xb8>
  a2:	d803      	bhi.n	ac <serial_receive+0xac>
  a4:	2a70      	cmp	r2, #112
  a6:	f040 8143 	bne.w	330 <serial_receive+0x330>
  aa:	e0cd      	b.n	248 <serial_receive+0x248>
  ac:	2a74      	cmp	r2, #116
  ae:	d059      	beq.n	164 <serial_receive+0x164>
  b0:	2a79      	cmp	r2, #121
  b2:	f040 813d 	bne.w	330 <serial_receive+0x330>
  b6:	e066      	b.n	186 <serial_receive+0x186>
  b8:	f64a 20aa 	movw	r0, #43690	; 0xaaaa
  bc:	f7ff fffe 	bl	0 <set_option_bytes>
  c0:	f7ff fffe 	bl	0 <write_novram>
  c4:	f7ff fffe 	bl	0 <software_reset>
  c8:	e132      	b.n	330 <serial_receive+0x330>
  ca:	20ff      	movs	r0, #255
  cc:	f7ff fffe 	bl	0 <can_start_reprogram>
  d0:	e12e      	b.n	260 <number_of_faults+0x260>
  d2:	f7ff fffe 	bl	0 <number_of_faults>
  d6:	4b69      	ldr	r3, [pc, #420]	(27c <serial_receive+0x27c>)
  d8:	e010      	b.n	fc <serial_receive+0xfc>
  da:	f7ff fffe 	bl	0 <erase_fault_log>
  de:	e127      	b.n	330 <serial_receive+0x330>
  e0:	4a67      	ldr	r2, [pc, #412]	(280 <serial_receive+0x280>)
  e2:	4b66      	ldr	r3, [pc, #408]	(27c <serial_receive+0x27c>)
  e4:	8812      	ldrh	r2, [r2, #0]
  e6:	801a      	strh	r2, [r3, #0]
  e8:	e122      	b.n	330 <serial_receive+0x330>
  ea:	f7ff fffe 	bl	0 <serial_receive>
  ee:	e11f      	b.n	242 <serial_receive+0x242>
  f0:	f7ff fffe 	bl	0 <serial_receive>
  f4:	e11c      	b.n	23c <number_of_novram+0x23c>
  f6:	f7ff fffe 	bl	0 <number_of_novram>
  fa:	4b62      	ldr	r3, [pc, #392]	(284 <serial_receive+0x284>)
  fc:	8018      	strh	r0, [r3, #0]
  fe:	e117      	b.n	330 <serial_receive+0x330>
 100:	4861      	ldr	r0, [pc, #388]	(288 <serial_receive+0x288>)
 102:	f7ff fffe 	bl	0 <fill_a_string>
 106:	4861      	ldr	r0, [pc, #388]	(188 <fill_a_string+0x188>)
 108:	f7ff fffe 	bl	0 <fill_a_string>
 10c:	4860      	ldr	r0, [pc, #384]	(184 <fill_a_string+0x184>)
 10e:	f7ff fffe 	bl	0 <fill_a_string>
 112:	4860      	ldr	r0, [pc, #384]	(184 <fill_a_string+0x184>)
 114:	f7ff fffe 	bl	0 <fill_a_string>
 118:	485f      	ldr	r0, [pc, #380]	(180 <fill_a_string+0x180>)
 11a:	f7ff fffe 	bl	0 <fill_a_string>
 11e:	485f      	ldr	r0, [pc, #380]	(180 <fill_a_string+0x180>)
 120:	f7ff fffe 	bl	0 <fill_a_string>
 124:	485e      	ldr	r0, [pc, #376]	(17c <fill_a_string+0x17c>)
 126:	f7ff fffe 	bl	0 <fill_a_string>
 12a:	485e      	ldr	r0, [pc, #376]	(17c <fill_a_string+0x17c>)
 12c:	f7ff fffe 	bl	0 <fill_a_string>
 130:	485d      	ldr	r0, [pc, #372]	(178 <fill_a_string+0x178>)
 132:	f7ff fffe 	bl	0 <fill_a_string>
 136:	485d      	ldr	r0, [pc, #372]	(178 <fill_a_string+0x178>)
 138:	f7ff fffe 	bl	0 <fill_a_string>
 13c:	485c      	ldr	r0, [pc, #368]	(174 <fill_a_string+0x174>)
 13e:	f7ff fffe 	bl	0 <fill_a_string>
 142:	485c      	ldr	r0, [pc, #368]	(174 <fill_a_string+0x174>)
 144:	f7ff fffe 	bl	0 <fill_a_string>
 148:	485b      	ldr	r0, [pc, #364]	(170 <fill_a_string+0x170>)
 14a:	f7ff fffe 	bl	0 <fill_a_string>
 14e:	485b      	ldr	r0, [pc, #364]	(170 <fill_a_string+0x170>)
 150:	f7ff fffe 	bl	0 <fill_a_string>
 154:	485a      	ldr	r0, [pc, #360]	(16c <fill_a_string+0x16c>)
 156:	f7ff fffe 	bl	0 <fill_a_string>
 15a:	485a      	ldr	r0, [pc, #360]	(16c <fill_a_string+0x16c>)
 15c:	f7ff fffe 	bl	0 <fill_a_string>
 160:	4859      	ldr	r0, [pc, #356]	(2c8 <serial_receive+0x2c8>)
 162:	e06e      	b.n	242 <serial_receive+0x242>
 164:	4c59      	ldr	r4, [pc, #356]	(2cc <serial_receive+0x2cc>)
 166:	485a      	ldr	r0, [pc, #360]	(2d0 <serial_receive+0x2d0>)
 168:	f7ff fffe 	bl	0 <fill_a_string>
 16c:	7823      	ldrb	r3, [r4, #0]
 16e:	b123      	cbz	r3, 17a <serial_receive+0x17a>
 170:	4858      	ldr	r0, [pc, #352]	(2d4 <serial_receive+0x2d4>)
 172:	f7ff fffe 	bl	0 <fill_a_string>
 176:	2300      	movs	r3, #0
 178:	e003      	b.n	182 <serial_receive+0x182>
 17a:	4857      	ldr	r0, [pc, #348]	(2d8 <serial_receive+0x2d8>)
 17c:	f7ff fffe 	bl	0 <fill_a_string>
 180:	2301      	movs	r3, #1
 182:	7023      	strb	r3, [r4, #0]
 184:	e0d2      	b.n	32c <serial_receive+0x32c>
 186:	f7ff fffe 	bl	0 <number_of_faults>
 18a:	493d      	ldr	r1, [pc, #244]	(280 <serial_receive+0x280>)
 18c:	b2c0      	uxtb	r0, r0
 18e:	880a      	ldrh	r2, [r1, #0]
 190:	4282      	cmp	r2, r0
 192:	d301      	bcc.n	198 <serial_receive+0x198>
 194:	8008      	strh	r0, [r1, #0]
 196:	e008      	b.n	1aa <serial_receive+0x1aa>
 198:	f89d 3007 	ldrb.w	r3, [sp, #7]
 19c:	2b79      	cmp	r3, #121
 19e:	d101      	bne.n	1a4 <serial_receive+0x1a4>
 1a0:	1c53      	adds	r3, r2, #1
 1a2:	e001      	b.n	1a8 <serial_receive+0x1a8>
 1a4:	b10a      	cbz	r2, 1aa <serial_receive+0x1aa>
 1a6:	1e53      	subs	r3, r2, #1
 1a8:	800b      	strh	r3, [r1, #0]
 1aa:	484c      	ldr	r0, [pc, #304]	(2dc <serial_receive+0x2dc>)
 1ac:	f7ff fffe 	bl	0 <fill_a_string>
 1b0:	4b33      	ldr	r3, [pc, #204]	(280 <serial_receive+0x280>)
 1b2:	8818      	ldrh	r0, [r3, #0]
 1b4:	f7ff fffe 	bl	0 <fill_a_decimal>
 1b8:	4849      	ldr	r0, [pc, #292]	(2e0 <serial_receive+0x2e0>)
 1ba:	e042      	b.n	242 <serial_receive+0x242>
 1bc:	f7ff fffe 	bl	0 <initialize_novram>
 1c0:	4848      	ldr	r0, [pc, #288]	(2e4 <serial_receive+0x2e4>)
 1c2:	e03e      	b.n	242 <serial_receive+0x242>
 1c4:	4848      	ldr	r0, [pc, #288]	(2e8 <serial_receive+0x2e8>)
 1c6:	f7ff fffe 	bl	0 <fill_a_string>
 1ca:	4848      	ldr	r0, [pc, #288]	(124 <fill_a_string+0x124>)
 1cc:	f7ff fffe 	bl	0 <fill_a_string>
 1d0:	4a47      	ldr	r2, [pc, #284]	(2f0 <serial_receive+0x2f0>)
 1d2:	8c93      	ldrh	r3, [r2, #36]
 1d4:	2b09      	cmp	r3, #9
 1d6:	d90d      	bls.n	1f4 <serial_receive+0x1f4>
 1d8:	3b0a      	subs	r3, #10
 1da:	e00a      	b.n	1f2 <serial_receive+0x1f2>
 1dc:	4845      	ldr	r0, [pc, #276]	(2f4 <serial_receive+0x2f4>)
 1de:	f7ff fffe 	bl	0 <fill_a_string>
 1e2:	4842      	ldr	r0, [pc, #264]	(10c <fill_a_string+0x10c>)
 1e4:	f7ff fffe 	bl	0 <fill_a_string>
 1e8:	4a41      	ldr	r2, [pc, #260]	(2f0 <serial_receive+0x2f0>)
 1ea:	8c93      	ldrh	r3, [r2, #36]
 1ec:	2bd7      	cmp	r3, #215
 1ee:	d801      	bhi.n	1f4 <serial_receive+0x1f4>
 1f0:	330a      	adds	r3, #10
 1f2:	8493      	strh	r3, [r2, #36]
 1f4:	4b3e      	ldr	r3, [pc, #248]	(2f0 <serial_receive+0x2f0>)
 1f6:	8c98      	ldrh	r0, [r3, #36]
 1f8:	f7ff fffe 	bl	0 <fill_a_decimal>
 1fc:	483e      	ldr	r0, [pc, #248]	(2f8 <serial_receive+0x2f8>)
 1fe:	e020      	b.n	242 <serial_receive+0x242>
 200:	483e      	ldr	r0, [pc, #248]	(2fc <serial_receive+0x2fc>)
 202:	f7ff fffe 	bl	0 <fill_a_string>
 206:	4a3e      	ldr	r2, [pc, #248]	(300 <serial_receive+0x300>)
 208:	7813      	ldrb	r3, [r2, #0]
 20a:	b91b      	cbnz	r3, 214 <serial_receive+0x214>
 20c:	3301      	adds	r3, #1
 20e:	7013      	strb	r3, [r2, #0]
 210:	483c      	ldr	r0, [pc, #240]	(304 <serial_receive+0x304>)
 212:	e016      	b.n	242 <serial_receive+0x242>
 214:	7014      	strb	r4, [r2, #0]
 216:	483c      	ldr	r0, [pc, #240]	(308 <serial_receive+0x308>)
 218:	e013      	b.n	242 <serial_receive+0x242>
 21a:	483c      	ldr	r0, [pc, #240]	(30c <serial_receive+0x30c>)
 21c:	f7ff fffe 	bl	0 <fill_a_string>
 220:	4a33      	ldr	r2, [pc, #204]	(2f0 <serial_receive+0x2f0>)
 222:	483b      	ldr	r0, [pc, #236]	(310 <serial_receive+0x310>)
 224:	f892 102d 	ldrb.w	r1, [r2, #45]
 228:	b131      	cbz	r1, 238 <serial_receive+0x238>
 22a:	2300      	movs	r3, #0
 22c:	f882 302d 	strb.w	r3, [r2, #45]
 230:	3303      	adds	r3, #3
 232:	7003      	strb	r3, [r0, #0]
 234:	4837      	ldr	r0, [pc, #220]	(314 <serial_receive+0x314>)
 236:	e004      	b.n	242 <serial_receive+0x242>
 238:	2301      	movs	r3, #1
 23a:	7001      	strb	r1, [r0, #0]
 23c:	4836      	ldr	r0, [pc, #216]	(318 <serial_receive+0x318>)
 23e:	f882 302d 	strb.w	r3, [r2, #45]
 242:	f7ff fffe 	bl	0 <fill_a_string>
 246:	e071      	b.n	32c <serial_receive+0x32c>
 248:	4c29      	ldr	r4, [pc, #164]	(2f0 <serial_receive+0x2f0>)
 24a:	4834      	ldr	r0, [pc, #208]	(31c <serial_receive+0x31c>)
 24c:	f7ff fffe 	bl	0 <fill_a_string>
 250:	f894 302c 	ldrb.w	r3, [r4, #44]
 254:	b123      	cbz	r3, 260 <serial_receive+0x260>
 256:	4832      	ldr	r0, [pc, #200]	(320 <serial_receive+0x320>)
 258:	f7ff fffe 	bl	0 <fill_a_string>
 25c:	2300      	movs	r3, #0
 25e:	e003      	b.n	268 <serial_receive+0x268>
 260:	4830      	ldr	r0, [pc, #192]	(324 <serial_receive+0x324>)
 262:	f7ff fffe 	bl	0 <fill_a_string>
 266:	2301      	movs	r3, #1
 268:	f884 302c 	strb.w	r3, [r4, #44]
 26c:	e05e      	b.n	32c <serial_receive+0x32c>
 26e:	46c0      	nop			(mov r8, r8)
	...
 278:	00000552 	.word	0x00000552
	...
 288:	00000572 	.word	0x00000572
 28c:	00000597 	.word	0x00000597
 290:	000005ce 	.word	0x000005ce
 294:	000005f0 	.word	0x000005f0
 298:	0000060e 	.word	0x0000060e
 29c:	00000627 	.word	0x00000627
 2a0:	0000063f 	.word	0x0000063f
 2a4:	00000655 	.word	0x00000655
 2a8:	0000066c 	.word	0x0000066c
 2ac:	00000694 	.word	0x00000694
 2b0:	000006b9 	.word	0x000006b9
 2b4:	000006e1 	.word	0x000006e1
 2b8:	000006f8 	.word	0x000006f8
 2bc:	00000724 	.word	0x00000724
 2c0:	00000740 	.word	0x00000740
 2c4:	00000761 	.word	0x00000761
 2c8:	0000077b 	.word	0x0000077b
 2cc:	00000000 	.word	0x00000000
 2d0:	000007a5 	.word	0x000007a5
 2d4:	000007b8 	.word	0x000007b8
 2d8:	000007c3 	.word	0x000007c3
 2dc:	000007cc 	.word	0x000007cc
 2e0:	000007d9 	.word	0x000007d9
 2e4:	000007e8 	.word	0x000007e8
 2e8:	00000802 	.word	0x00000802
 2ec:	0000082c 	.word	0x0000082c
 2f0:	00000000 	.word	0x00000000
 2f4:	00000850 	.word	0x00000850
 2f8:	00000848 	.word	0x00000848
 2fc:	0000087a 	.word	0x0000087a
 300:	00000000 	.word	0x00000000
 304:	000008a0 	.word	0x000008a0
 308:	000008ce 	.word	0x000008ce
 30c:	000008fb 	.word	0x000008fb
 310:	00000000 	.word	0x00000000
 314:	0000092d 	.word	0x0000092d
 318:	0000094a 	.word	0x0000094a
 31c:	00000965 	.word	0x00000965
 320:	0000097e 	.word	0x0000097e
 324:	00000991 	.word	0x00000991
 328:	f7ff fffe 	bl	0 <serial_receive>
 32c:	f7ff fffe 	bl	0 <send_sio_buffer>
 330:	bd1c      	pop	{r2, r3, r4, pc}
 332:	46c0      	nop			(mov r8, r8)
Disassembly of section .text.check_serial:

00000000 <check_serial>:
check_serial():
   0:	b510      	push	{r4, lr}
   2:	f7ff fffe 	bl	0 <buffer_is_busy>
   6:	bb38      	cbnz	r0, 58 <check_serial+0x58>
   8:	4b14      	ldr	r3, [pc, #80]	(5c <check_serial+0x5c>)
   a:	789b      	ldrb	r3, [r3, #2]
   c:	2b08      	cmp	r3, #8
   e:	d823      	bhi.n	58 <check_serial+0x58>
  10:	e8df f003 	tbb	[pc, r3]
  14:	2205      	.short	0x2205
  16:	2222      	.short	0x2222
  18:	1a221708 	.word	0x1a221708
  1c:	001c      	.short	0x001c
  1e:	f7ff fffe 	bl	0 <check_serial>
  22:	e019      	b.n	58 <check_serial+0x58>
  24:	4c0d      	ldr	r4, [pc, #52]	(5c <check_serial+0x5c>)
  26:	480e      	ldr	r0, [pc, #56]	(60 <check_serial+0x60>)
  28:	f7ff fffe 	bl	0 <fill_a_string>
  2c:	7820      	ldrb	r0, [r4, #0]
  2e:	f7ff fffe 	bl	0 <fill_a_byte>
  32:	480c      	ldr	r0, [pc, #48]	(34 <fill_a_string+0x34>)
  34:	f7ff fffe 	bl	0 <fill_a_string>
  38:	f7ff fffe 	bl	0 <send_sio_buffer>
  3c:	2305      	movs	r3, #5
  3e:	70a3      	strb	r3, [r4, #2]
  40:	e00a      	b.n	58 <check_serial+0x58>
  42:	f7ff fffe 	bl	0 <can_send_binary>
  46:	e007      	b.n	58 <check_serial+0x58>
  48:	4807      	ldr	r0, [pc, #28]	(68 <check_serial+0x68>)
  4a:	e000      	b.n	4e <check_serial+0x4e>
  4c:	4807      	ldr	r0, [pc, #28]	(6c <check_serial+0x6c>)
  4e:	f7ff fffe 	bl	0 <send_a_string>
  52:	4b02      	ldr	r3, [pc, #8]	(5c <check_serial+0x5c>)
  54:	2200      	movs	r2, #0
  56:	709a      	strb	r2, [r3, #2]
  58:	bd10      	pop	{r4, pc}
  5a:	46c0      	nop			(mov r8, r8)
  5c:	00000000 	.word	0x00000000
  60:	000009a3 	.word	0x000009a3
  64:	000003f2 	.word	0x000003f2
  68:	000009c4 	.word	0x000009c4
  6c:	000009e1 	.word	0x000009e1
Disassembly of section .text.print_test_vars:

00000000 <print_test_vars>:
print_test_vars():
   0:	e92d 41f0 	stmdb	sp!, {r4, r5, r6, r7, r8, lr}
   4:	4810      	ldr	r0, [pc, #64]	(44 <fill_a_string+0x44>)
   6:	f7ff fffe 	bl	0 <fill_a_string>
   a:	2500      	movs	r5, #0
   c:	462e      	mov	r6, r5
   e:	480f      	ldr	r0, [pc, #60]	(4c <print_test_vars+0x4c>)
  10:	f7ff fffe 	bl	0 <fill_a_string>
  14:	4c0e      	ldr	r4, [pc, #56]	(50 <print_test_vars+0x50>)
  16:	4628      	mov	r0, r5
  18:	f7ff fffe 	bl	0 <fill_a_decimal>
  1c:	480d      	ldr	r0, [pc, #52]	(38 <fill_a_string+0x38>)
  1e:	f7ff fffe 	bl	0 <fill_a_string>
  22:	2700      	movs	r7, #0
  24:	59a0      	ldr	r0, [r4, r6]
  26:	3501      	adds	r5, #1
  28:	f7ff fffe 	bl	0 <fill_a_long>
  2c:	51a7      	str	r7, [r4, r6]
  2e:	3604      	adds	r6, #4
  30:	2d0a      	cmp	r5, #10
  32:	d1ec      	bne.n	e <print_test_vars+0xe>
  34:	4808      	ldr	r0, [pc, #32]	(58 <print_test_vars+0x58>)
  36:	f7ff fffe 	bl	0 <fill_a_string>
  3a:	4807      	ldr	r0, [pc, #28]	(20 <fill_a_string+0x20>)
  3c:	f7ff fffe 	bl	0 <fill_a_string>
  40:	4b06      	ldr	r3, [pc, #24]	(5c <print_test_vars+0x5c>)
  42:	701f      	strb	r7, [r3, #0]
  44:	e8bd 81f0 	ldmia.w	sp!, {r4, r5, r6, r7, r8, pc}
  48:	00000a00 	.word	0x00000a00
  4c:	000003f2 	.word	0x000003f2
  50:	00000000 	.word	0x00000000
  54:	00000a0e 	.word	0x00000a0e
  58:	00000a11 	.word	0x00000a11
  5c:	00000000 	.word	0x00000000
